target datalayout = "e-m:e-p270:32:32-p271:32:32-p272:64:64-i64:64-i128:128-f80:128-n8:16:32:64-S128"
target triple = "x86_64-pc-linux-gnu"

%class.anon.149 = type { ptr, ptr, ptr, ptr }

; Function Attrs: inlinehint mustprogress ssp uwtable
define linkonce_odr hidden noundef ptr @_ZN6open3d4core6Tensor10GetDataPtrIhEEPT_v(ptr noundef nonnull align 8 dereferenceable(160) %0) #16 comdat align 2 {
  %2 = alloca ptr, align 8
  store ptr %0, ptr %2, align 8, !tbaa !148
  %3 = load ptr, ptr %2, align 8
  %4 = call noundef ptr @_ZNK6open3d4core6Tensor10GetDataPtrIhEEPKT_v(ptr noundef nonnull align 8 dereferenceable(160) %3)
  ret ptr %4
}

; Function Attrs: inlinehint mustprogress ssp uwtable
define internal void @"_ZZZN6open3d1t8geometry6kernel12trianglemesh23ComputeVertexNormalsCPUERKNS_4core6TensorES7_RS5_ENK3$_0clEvENKUlvE5_clEv"(ptr noundef nonnull align 8 dereferenceable(32) %0) #16 align 2 {
  %2 = alloca ptr, align 8
  %3 = alloca ptr, align 8
  %4 = alloca ptr, align 8
  %5 = alloca ptr, align 8
  %6 = alloca i64, align 8
  %7 = alloca i64, align 8
  %8 = alloca i64, align 8
  %9 = alloca i64, align 8
  %10 = alloca i64, align 8
  %11 = alloca i8, align 1
  %12 = alloca i8, align 1
  %13 = alloca i8, align 1
  store ptr %0, ptr %2, align 8, !tbaa !86
  %14 = load ptr, ptr %2, align 8
  call void @llvm.lifetime.start.p0(i64 8, ptr %3) #7
  %15 = getelementptr inbounds nuw %class.anon.149, ptr %14, i32 0, i32 0
  %16 = load ptr, ptr %15, align 8, !tbaa !1002
  %17 = call noundef ptr @_ZNK6open3d4core6Tensor10GetDataPtrIlEEPKT_v(ptr noundef nonnull align 8 dereferenceable(160) %16)
  store ptr %17, ptr %3, align 8, !tbaa !126
  call void @llvm.lifetime.start.p0(i64 8, ptr %4) #7
  %18 = getelementptr inbounds nuw %class.anon.149, ptr %14, i32 0, i32 1
  %19 = load ptr, ptr %18, align 8, !tbaa !1004
  %20 = call noundef ptr @_ZNK6open3d4core6Tensor10GetDataPtrIhEEPKT_v(ptr noundef nonnull align 8 dereferenceable(160) %19)
  store ptr %20, ptr %4, align 8, !tbaa !186
  call void @llvm.lifetime.start.p0(i64 8, ptr %5) #7
  %21 = getelementptr inbounds nuw %class.anon.149, ptr %14, i32 0, i32 2
  %22 = load ptr, ptr %21, align 8, !tbaa !1005
  %23 = call noundef ptr @_ZN6open3d4core6Tensor10GetDataPtrIhEEPT_v(ptr noundef nonnull align 8 dereferenceable(160) %22)
  store ptr %23, ptr %5, align 8, !tbaa !186
  call void @llvm.lifetime.start.p0(i64 8, ptr %6) #7
  store i64 0, ptr %6, align 8, !tbaa !30
  br label %24

24:                                               ; preds = %158, %1
  %25 = load i64, ptr %6, align 8, !tbaa !30
  %26 = getelementptr inbounds nuw %class.anon.149, ptr %14, i32 0, i32 3
  %27 = load ptr, ptr %26, align 8, !tbaa !1006
  %28 = load i64, ptr %27, align 8, !tbaa !30
  %29 = icmp slt i64 %25, %28
  br i1 %29, label %31, label %30

30:                                               ; preds = %24
  call void @llvm.lifetime.end.p0(i64 8, ptr %6) #7
  br label %161

31:                                               ; preds = %24
  call void @llvm.lifetime.start.p0(i64 8, ptr %7) #7
  %32 = load i64, ptr %6, align 8, !tbaa !30
  %33 = mul nsw i64 3, %32
  store i64 %33, ptr %7, align 8, !tbaa !30
  call void @llvm.lifetime.start.p0(i64 8, ptr %8) #7
  %34 = load ptr, ptr %3, align 8, !tbaa !126
  %35 = load i64, ptr %7, align 8, !tbaa !30
  %36 = getelementptr inbounds i64, ptr %34, i64 %35
  %37 = load i64, ptr %36, align 8, !tbaa !30
  store i64 %37, ptr %8, align 8, !tbaa !30
  call void @llvm.lifetime.start.p0(i64 8, ptr %9) #7
  %38 = load ptr, ptr %3, align 8, !tbaa !126
  %39 = load i64, ptr %7, align 8, !tbaa !30
  %40 = add nsw i64 %39, 1
  %41 = getelementptr inbounds i64, ptr %38, i64 %40
  %42 = load i64, ptr %41, align 8, !tbaa !30
  store i64 %42, ptr %9, align 8, !tbaa !30
  call void @llvm.lifetime.start.p0(i64 8, ptr %10) #7
  %43 = load ptr, ptr %3, align 8, !tbaa !126
  %44 = load i64, ptr %7, align 8, !tbaa !30
  %45 = add nsw i64 %44, 2
  %46 = getelementptr inbounds i64, ptr %43, i64 %45
  %47 = load i64, ptr %46, align 8, !tbaa !30
  store i64 %47, ptr %10, align 8, !tbaa !30
  call void @llvm.lifetime.start.p0(i64 1, ptr %11) #7
  %48 = load ptr, ptr %4, align 8, !tbaa !186
  %49 = load i64, ptr %7, align 8, !tbaa !30
  %50 = getelementptr inbounds i8, ptr %48, i64 %49
  %51 = load i8, ptr %50, align 1, !tbaa !20
  store i8 %51, ptr %11, align 1, !tbaa !20
  call void @llvm.lifetime.start.p0(i64 1, ptr %12) #7
  %52 = load ptr, ptr %4, align 8, !tbaa !186
  %53 = load i64, ptr %7, align 8, !tbaa !30
  %54 = add nsw i64 %53, 1
  %55 = getelementptr inbounds i8, ptr %52, i64 %54
  %56 = load i8, ptr %55, align 1, !tbaa !20
  store i8 %56, ptr %12, align 1, !tbaa !20
  call void @llvm.lifetime.start.p0(i64 1, ptr %13) #7
  %57 = load ptr, ptr %4, align 8, !tbaa !186
  %58 = load i64, ptr %7, align 8, !tbaa !30
  %59 = add nsw i64 %58, 2
  %60 = getelementptr inbounds i8, ptr %57, i64 %59
  %61 = load i8, ptr %60, align 1, !tbaa !20
  store i8 %61, ptr %13, align 1, !tbaa !20
  %62 = load i8, ptr %11, align 1, !tbaa !20
  %63 = zext i8 %62 to i32
  %64 = load ptr, ptr %5, align 8, !tbaa !186
  %65 = load i64, ptr %8, align 8, !tbaa !30
  %66 = mul nsw i64 3, %65
  %67 = getelementptr inbounds i8, ptr %64, i64 %66
  %68 = load i8, ptr %67, align 1, !tbaa !20
  %69 = zext i8 %68 to i32
  %70 = add nsw i32 %69, %63
  %71 = trunc i32 %70 to i8
  store i8 %71, ptr %67, align 1, !tbaa !20
  %72 = load i8, ptr %12, align 1, !tbaa !20
  %73 = zext i8 %72 to i32
  %74 = load ptr, ptr %5, align 8, !tbaa !186
  %75 = load i64, ptr %8, align 8, !tbaa !30
  %76 = mul nsw i64 3, %75
  %77 = add nsw i64 %76, 1
  %78 = getelementptr inbounds i8, ptr %74, i64 %77
  %79 = load i8, ptr %78, align 1, !tbaa !20
  %80 = zext i8 %79 to i32
  %81 = add nsw i32 %80, %73
  %82 = trunc i32 %81 to i8
  store i8 %82, ptr %78, align 1, !tbaa !20
  %83 = load i8, ptr %13, align 1, !tbaa !20
  %84 = zext i8 %83 to i32
  %85 = load ptr, ptr %5, align 8, !tbaa !186
  %86 = load i64, ptr %8, align 8, !tbaa !30
  %87 = mul nsw i64 3, %86
  %88 = add nsw i64 %87, 2
  %89 = getelementptr inbounds i8, ptr %85, i64 %88
  %90 = load i8, ptr %89, align 1, !tbaa !20
  %91 = zext i8 %90 to i32
  %92 = add nsw i32 %91, %84
  %93 = trunc i32 %92 to i8
  store i8 %93, ptr %89, align 1, !tbaa !20
  %94 = load i8, ptr %11, align 1, !tbaa !20
  %95 = zext i8 %94 to i32
  %96 = load ptr, ptr %5, align 8, !tbaa !186
  %97 = load i64, ptr %9, align 8, !tbaa !30
  %98 = mul nsw i64 3, %97
  %99 = getelementptr inbounds i8, ptr %96, i64 %98
  %100 = load i8, ptr %99, align 1, !tbaa !20
  %101 = zext i8 %100 to i32
  %102 = add nsw i32 %101, %95
  %103 = trunc i32 %102 to i8
  store i8 %103, ptr %99, align 1, !tbaa !20
  %104 = load i8, ptr %12, align 1, !tbaa !20
  %105 = zext i8 %104 to i32
  %106 = load ptr, ptr %5, align 8, !tbaa !186
  %107 = load i64, ptr %9, align 8, !tbaa !30
  %108 = mul nsw i64 3, %107
  %109 = add nsw i64 %108, 1
  %110 = getelementptr inbounds i8, ptr %106, i64 %109
  %111 = load i8, ptr %110, align 1, !tbaa !20
  %112 = zext i8 %111 to i32
  %113 = add nsw i32 %112, %105
  %114 = trunc i32 %113 to i8
  store i8 %114, ptr %110, align 1, !tbaa !20
  %115 = load i8, ptr %13, align 1, !tbaa !20
  %116 = zext i8 %115 to i32
  %117 = load ptr, ptr %5, align 8, !tbaa !186
  %118 = load i64, ptr %9, align 8, !tbaa !30
  %119 = mul nsw i64 3, %118
  %120 = add nsw i64 %119, 2
  %121 = getelementptr inbounds i8, ptr %117, i64 %120
  %122 = load i8, ptr %121, align 1, !tbaa !20
  %123 = zext i8 %122 to i32
  %124 = add nsw i32 %123, %116
  %125 = trunc i32 %124 to i8
  store i8 %125, ptr %121, align 1, !tbaa !20
  %126 = load i8, ptr %11, align 1, !tbaa !20
  %127 = zext i8 %126 to i32
  %128 = load ptr, ptr %5, align 8, !tbaa !186
  %129 = load i64, ptr %10, align 8, !tbaa !30
  %130 = mul nsw i64 3, %129
  %131 = getelementptr inbounds i8, ptr %128, i64 %130
  %132 = load i8, ptr %131, align 1, !tbaa !20
  %133 = zext i8 %132 to i32
  %134 = add nsw i32 %133, %127
  %135 = trunc i32 %134 to i8
  store i8 %135, ptr %131, align 1, !tbaa !20
  %136 = load i8, ptr %12, align 1, !tbaa !20
  %137 = zext i8 %136 to i32
  %138 = load ptr, ptr %5, align 8, !tbaa !186
  %139 = load i64, ptr %10, align 8, !tbaa !30
  %140 = mul nsw i64 3, %139
  %141 = add nsw i64 %140, 1
  %142 = getelementptr inbounds i8, ptr %138, i64 %141
  %143 = load i8, ptr %142, align 1, !tbaa !20
  %144 = zext i8 %143 to i32
  %145 = add nsw i32 %144, %137
  %146 = trunc i32 %145 to i8
  store i8 %146, ptr %142, align 1, !tbaa !20
  %147 = load i8, ptr %13, align 1, !tbaa !20
  %148 = zext i8 %147 to i32
  %149 = load ptr, ptr %5, align 8, !tbaa !186
  %150 = load i64, ptr %10, align 8, !tbaa !30
  %151 = mul nsw i64 3, %150
  %152 = add nsw i64 %151, 2
  %153 = getelementptr inbounds i8, ptr %149, i64 %152
  %154 = load i8, ptr %153, align 1, !tbaa !20
  %155 = zext i8 %154 to i32
  %156 = add nsw i32 %155, %148
  %157 = trunc i32 %156 to i8
  store i8 %157, ptr %153, align 1, !tbaa !20
  call void @llvm.lifetime.end.p0(i64 1, ptr %13) #7
  call void @llvm.lifetime.end.p0(i64 1, ptr %12) #7
  call void @llvm.lifetime.end.p0(i64 1, ptr %11) #7
  call void @llvm.lifetime.end.p0(i64 8, ptr %10) #7
  call void @llvm.lifetime.end.p0(i64 8, ptr %9) #7
  call void @llvm.lifetime.end.p0(i64 8, ptr %8) #7
  call void @llvm.lifetime.end.p0(i64 8, ptr %7) #7
  br label %158

158:                                              ; preds = %31
  %159 = load i64, ptr %6, align 8, !tbaa !30
  %160 = add nsw i64 %159, 1
  store i64 %160, ptr %6, align 8, !tbaa !30
  br label %24, !llvm.loop !1007

161:                                              ; preds = %30
  call void @llvm.lifetime.end.p0(i64 8, ptr %5) #7
  call void @llvm.lifetime.end.p0(i64 8, ptr %4) #7
  call void @llvm.lifetime.end.p0(i64 8, ptr %3) #7
  ret void
}