; Function Attrs: inlinehint mustprogress ssp uwtable
define internal fastcc void @"_ZZZN6open3d1t8geometry6kernel12trianglemesh23ComputeVertexNormalsCPUERKNS_4core6TensorES7_RS5_ENK3$_0clEvENKUlvE5_clEv"(ptr noundef nonnull readonly align 8 captures(none) dereferenceable(32) %0) unnamed_addr #15 align 2 {
  %2 = load ptr, ptr %0, align 8, !tbaa !698
  %3 = tail call noundef ptr @_ZNK6open3d4core6Tensor10GetDataPtrIlEEPKT_v(ptr noundef nonnull align 8 dereferenceable(160) %2)
  %4 = getelementptr inbounds nuw i8, ptr %0, i64 8
  %5 = load ptr, ptr %4, align 8, !tbaa !700
  %6 = tail call noundef ptr @_ZNK6open3d4core6Tensor10GetDataPtrIhEEPKT_v(ptr noundef nonnull align 8 dereferenceable(160) %5)
  %7 = getelementptr inbounds nuw i8, ptr %0, i64 16
  %8 = load ptr, ptr %7, align 8, !tbaa !701
  %9 = tail call noundef ptr @_ZNK6open3d4core6Tensor10GetDataPtrIhEEPKT_v(ptr noundef nonnull align 8 dereferenceable(160) %8)
  %10 = getelementptr inbounds nuw i8, ptr %0, i64 24
  %11 = load ptr, ptr %10, align 8, !tbaa !702
  %12 = load i64, ptr %11, align 8, !tbaa !41
  %13 = icmp sgt i64 %12, 0
  br i1 %13, label %.lr.ph, label %._crit_edge

._crit_edge:                                      ; preds = %.lr.ph, %1
  ret void

.lr.ph:                                           ; preds = %1, %.lr.ph
  %.042 = phi i64 [ %59, %.lr.ph ], [ 0, %1 ]
  %14 = mul nuw nsw i64 %.042, 3
  %15 = getelementptr inbounds nuw i64, ptr %3, i64 %14
  %16 = load i64, ptr %15, align 8, !tbaa !41
  %17 = add nuw nsw i64 %14, 1
  %18 = getelementptr inbounds nuw i64, ptr %3, i64 %17
  %19 = load i64, ptr %18, align 8, !tbaa !41
  %20 = add nuw nsw i64 %14, 2
  %21 = getelementptr inbounds nuw i64, ptr %3, i64 %20
  %22 = load i64, ptr %21, align 8, !tbaa !41
  %23 = getelementptr inbounds nuw i8, ptr %6, i64 %14
  %24 = load i8, ptr %23, align 1, !tbaa !42
  %25 = getelementptr inbounds nuw i8, ptr %6, i64 %17
  %26 = load i8, ptr %25, align 1, !tbaa !42
  %27 = getelementptr inbounds nuw i8, ptr %6, i64 %20
  %28 = load i8, ptr %27, align 1, !tbaa !42
  %29 = mul nsw i64 %16, 3
  %30 = getelementptr inbounds i8, ptr %9, i64 %29
  %31 = load i8, ptr %30, align 1, !tbaa !42
  %32 = add i8 %31, %24
  store i8 %32, ptr %30, align 1, !tbaa !42
  %33 = getelementptr i8, ptr %30, i64 1
  %34 = load i8, ptr %33, align 1, !tbaa !42
  %35 = add i8 %34, %26
  store i8 %35, ptr %33, align 1, !tbaa !42
  %36 = getelementptr i8, ptr %30, i64 2
  %37 = load i8, ptr %36, align 1, !tbaa !42
  %38 = add i8 %37, %28
  store i8 %38, ptr %36, align 1, !tbaa !42
  %39 = mul nsw i64 %19, 3
  %40 = getelementptr inbounds i8, ptr %9, i64 %39
  %41 = load i8, ptr %40, align 1, !tbaa !42
  %42 = add i8 %41, %24
  store i8 %42, ptr %40, align 1, !tbaa !42
  %43 = getelementptr i8, ptr %40, i64 1
  %44 = load i8, ptr %43, align 1, !tbaa !42
  %45 = add i8 %44, %26
  store i8 %45, ptr %43, align 1, !tbaa !42
  %46 = getelementptr i8, ptr %40, i64 2
  %47 = load i8, ptr %46, align 1, !tbaa !42
  %48 = add i8 %47, %28
  store i8 %48, ptr %46, align 1, !tbaa !42
  %49 = mul nsw i64 %22, 3
  %50 = getelementptr inbounds i8, ptr %9, i64 %49
  %51 = load i8, ptr %50, align 1, !tbaa !42
  %52 = add i8 %51, %24
  store i8 %52, ptr %50, align 1, !tbaa !42
  %53 = getelementptr i8, ptr %50, i64 1
  %54 = load i8, ptr %53, align 1, !tbaa !42
  %55 = add i8 %54, %26
  store i8 %55, ptr %53, align 1, !tbaa !42
  %56 = getelementptr i8, ptr %50, i64 2
  %57 = load i8, ptr %56, align 1, !tbaa !42
  %58 = add i8 %57, %28
  store i8 %58, ptr %56, align 1, !tbaa !42
  %59 = add nuw nsw i64 %.042, 1
  %60 = load ptr, ptr %10, align 8, !tbaa !702
  %61 = load i64, ptr %60, align 8, !tbaa !41
  %62 = icmp slt i64 %59, %61
  br i1 %62, label %.lr.ph, label %._crit_edge, !llvm.loop !703
}